; Function Attrs: mustprogress uwtable
define dso_local void @_ZN4Json5Value7dupMetaERKS0_(ptr noundef nonnull align 8 dereferenceable(40) %0, ptr nocapture noundef nonnull readonly align 8 dereferenceable(40) %1) local_unnamed_addr #10 align 2 {
  %3 = getelementptr inbounds i8, ptr %1, i64 16
  %4 = getelementptr inbounds i8, ptr %0, i64 16
  %5 = tail call noundef nonnull align 8 dereferenceable(8) ptr @_ZN4Json5Value8CommentsaSERKS1_(ptr noundef nonnull align 8 dereferenceable(8) %4, ptr noundef nonnull align 8 dereferenceable(8) %3)
  %6 = getelementptr inbounds i8, ptr %1, i64 24
  %7 = load i64, ptr %6, align 8
  %8 = getelementptr inbounds i8, ptr %0, i64 24
  store i64 %7, ptr %8, align 8
  %9 = getelementptr inbounds i8, ptr %1, i64 32
  %10 = load i64, ptr %9, align 8
  %11 = getelementptr inbounds i8, ptr %0, i64 32
  store i64 %10, ptr %11, align 8
  ret void
}